target datalayout = "e-m:e-p270:32:32-p271:32:32-p272:64:64-i64:64-i128:128-f80:128-n8:16:32:64-S128"
target triple = "x86_64-unknown-linux-gnu"

%"class.icu_75::UVector" = type { %"class.icu_75::UObject", i32, i32, ptr, ptr, ptr }
%"class.icu_75::UObject" = type { ptr }
%union.UElement = type { ptr }

; Function Attrs: mustprogress uwtable
define noundef i32 @_ZNK6icu_757UVector7indexOfE8UElementia(ptr noundef nonnull align 8 dereferenceable(40) %this, ptr %key.coerce, i32 noundef %startIndex, i8 noundef signext %hint) #1 align 2 {
entry:
  %retval = alloca i32, align 4
  %key = alloca %union.UElement, align 8
  %this.addr = alloca ptr, align 8
  %startIndex.addr = alloca i32, align 4
  %hint.addr = alloca i8, align 1
  %i = alloca i32, align 4
  %agg.tmp = alloca %union.UElement, align 8
  %agg.tmp4 = alloca %union.UElement, align 8
  %i8 = alloca i32, align 4
  %coerce.dive = getelementptr inbounds %union.UElement, ptr %key, i32 0, i32 0
  store ptr %key.coerce, ptr %coerce.dive, align 8
  store ptr %this, ptr %this.addr, align 8
  store i32 %startIndex, ptr %startIndex.addr, align 4
  store i8 %hint, ptr %hint.addr, align 1
  %this1 = load ptr, ptr %this.addr, align 8
  %comparer = getelementptr inbounds %"class.icu_75::UVector", ptr %this1, i32 0, i32 5
  %0 = load ptr, ptr %comparer, align 8
  %cmp = icmp ne ptr %0, null
  br i1 %cmp, label %if.then, label %if.else

if.then:                                          ; preds = %entry
  %1 = load i32, ptr %startIndex.addr, align 4
  store i32 %1, ptr %i, align 4
  br label %for.cond

for.cond:                                         ; preds = %for.inc, %if.then
  %2 = load i32, ptr %i, align 4
  %count = getelementptr inbounds %"class.icu_75::UVector", ptr %this1, i32 0, i32 1
  %3 = load i32, ptr %count, align 8
  %cmp2 = icmp slt i32 %2, %3
  br i1 %cmp2, label %for.body, label %for.end

for.body:                                         ; preds = %for.cond
  %comparer3 = getelementptr inbounds %"class.icu_75::UVector", ptr %this1, i32 0, i32 5
  %4 = load ptr, ptr %comparer3, align 8
  call void @llvm.memcpy.p0.p0.i64(ptr align 8 %agg.tmp, ptr align 8 %key, i64 8, i1 false)
  %elements = getelementptr inbounds %"class.icu_75::UVector", ptr %this1, i32 0, i32 3
  %5 = load ptr, ptr %elements, align 8
  %6 = load i32, ptr %i, align 4
  %idxprom = sext i32 %6 to i64
  %arrayidx = getelementptr inbounds %union.UElement, ptr %5, i64 %idxprom
  call void @llvm.memcpy.p0.p0.i64(ptr align 8 %agg.tmp4, ptr align 8 %arrayidx, i64 8, i1 false)
  %coerce.dive5 = getelementptr inbounds %union.UElement, ptr %agg.tmp, i32 0, i32 0
  %7 = load ptr, ptr %coerce.dive5, align 8
  %coerce.dive6 = getelementptr inbounds %union.UElement, ptr %agg.tmp4, i32 0, i32 0
  %8 = load ptr, ptr %coerce.dive6, align 8
  %call = call noundef signext i8 %4(ptr %7, ptr %8)
  %tobool = icmp ne i8 %call, 0
  br i1 %tobool, label %if.then7, label %if.end

if.then7:                                         ; preds = %for.body
  %9 = load i32, ptr %i, align 4
  store i32 %9, ptr %retval, align 4
  br label %return

if.end:                                           ; preds = %for.body
  br label %for.inc

for.inc:                                          ; preds = %if.end
  %10 = load i32, ptr %i, align 4
  %inc = add nsw i32 %10, 1
  store i32 %inc, ptr %i, align 4
  br label %for.cond, !llvm.loop !13

for.end:                                          ; preds = %for.cond
  br label %if.end32

if.else:                                          ; preds = %entry
  %11 = load i32, ptr %startIndex.addr, align 4
  store i32 %11, ptr %i8, align 4
  br label %for.cond9

for.cond9:                                        ; preds = %for.inc29, %if.else
  %12 = load i32, ptr %i8, align 4
  %count10 = getelementptr inbounds %"class.icu_75::UVector", ptr %this1, i32 0, i32 1
  %13 = load i32, ptr %count10, align 8
  %cmp11 = icmp slt i32 %12, %13
  br i1 %cmp11, label %for.body12, label %for.end31

for.body12:                                       ; preds = %for.cond9
  %14 = load i8, ptr %hint.addr, align 1
  %conv = sext i8 %14 to i32
  %and = and i32 %conv, 1
  %tobool13 = icmp ne i32 %and, 0
  br i1 %tobool13, label %if.then14, label %if.else21

if.then14:                                        ; preds = %for.body12
  %15 = load ptr, ptr %key, align 8
  %elements15 = getelementptr inbounds %"class.icu_75::UVector", ptr %this1, i32 0, i32 3
  %16 = load ptr, ptr %elements15, align 8
  %17 = load i32, ptr %i8, align 4
  %idxprom16 = sext i32 %17 to i64
  %arrayidx17 = getelementptr inbounds %union.UElement, ptr %16, i64 %idxprom16
  %18 = load ptr, ptr %arrayidx17, align 8
  %cmp18 = icmp eq ptr %15, %18
  br i1 %cmp18, label %if.then19, label %if.end20

if.then19:                                        ; preds = %if.then14
  %19 = load i32, ptr %i8, align 4
  store i32 %19, ptr %retval, align 4
  br label %return

if.end20:                                         ; preds = %if.then14
  br label %if.end28

if.else21:                                        ; preds = %for.body12
  %20 = load i32, ptr %key, align 8
  %elements22 = getelementptr inbounds %"class.icu_75::UVector", ptr %this1, i32 0, i32 3
  %21 = load ptr, ptr %elements22, align 8
  %22 = load i32, ptr %i8, align 4
  %idxprom23 = sext i32 %22 to i64
  %arrayidx24 = getelementptr inbounds %union.UElement, ptr %21, i64 %idxprom23
  %23 = load i32, ptr %arrayidx24, align 8
  %cmp25 = icmp eq i32 %20, %23
  br i1 %cmp25, label %if.then26, label %if.end27

if.then26:                                        ; preds = %if.else21
  %24 = load i32, ptr %i8, align 4
  store i32 %24, ptr %retval, align 4
  br label %return

if.end27:                                         ; preds = %if.else21
  br label %if.end28

if.end28:                                         ; preds = %if.end27, %if.end20
  br label %for.inc29

for.inc29:                                        ; preds = %if.end28
  %25 = load i32, ptr %i8, align 4
  %inc30 = add nsw i32 %25, 1
  store i32 %inc30, ptr %i8, align 4
  br label %for.cond9, !llvm.loop !14

for.end31:                                        ; preds = %for.cond9
  br label %if.end32

if.end32:                                         ; preds = %for.end31, %for.end
  store i32 -1, ptr %retval, align 4
  br label %return

return:                                           ; preds = %if.end32, %if.then26, %if.then19, %if.then7
  %26 = load i32, ptr %retval, align 4
  ret i32 %26
}

; Function Attrs: mustprogress nounwind uwtable
define linkonce_odr noundef i32 @_ZNK6icu_757UVector4sizeEv(ptr noundef nonnull align 8 dereferenceable(40) %this) #0 comdat align 2 {
entry:
  %this.addr = alloca ptr, align 8
  store ptr %this, ptr %this.addr, align 8
  %this1 = load ptr, ptr %this.addr, align 8
  %count = getelementptr inbounds %"class.icu_75::UVector", ptr %this1, i32 0, i32 1
  %0 = load i32, ptr %count, align 8
  ret i32 %0
}

; Function Attrs: mustprogress uwtable
define noundef signext i8 @_ZNK6icu_757UVector11containsAllERKS0_(ptr noundef nonnull align 8 dereferenceable(40) %this, ptr noundef nonnull align 8 dereferenceable(40) %other) #1 align 2 {
entry:
  %retval = alloca i8, align 1
  %this.addr = alloca ptr, align 8
  %other.addr = alloca ptr, align 8
  %i = alloca i32, align 4
  %agg.tmp = alloca %union.UElement, align 8
  store ptr %this, ptr %this.addr, align 8
  store ptr %other, ptr %other.addr, align 8
  %this1 = load ptr, ptr %this.addr, align 8
  store i32 0, ptr %i, align 4
  br label %for.cond

for.cond:                                         ; preds = %for.inc, %entry
  %0 = load i32, ptr %i, align 4
  %1 = load ptr, ptr %other.addr, align 8
  %call = call noundef i32 @_ZNK6icu_757UVector4sizeEv(ptr noundef nonnull align 8 dereferenceable(40) %1)
  %cmp = icmp slt i32 %0, %call
  br i1 %cmp, label %for.body, label %for.end

for.body:                                         ; preds = %for.cond
  %2 = load ptr, ptr %other.addr, align 8
  %elements = getelementptr inbounds %"class.icu_75::UVector", ptr %2, i32 0, i32 3
  %3 = load ptr, ptr %elements, align 8
  %4 = load i32, ptr %i, align 4
  %idxprom = sext i32 %4 to i64
  %arrayidx = getelementptr inbounds %union.UElement, ptr %3, i64 %idxprom
  call void @llvm.memcpy.p0.p0.i64(ptr align 8 %agg.tmp, ptr align 8 %arrayidx, i64 8, i1 false)
  %coerce.dive = getelementptr inbounds %union.UElement, ptr %agg.tmp, i32 0, i32 0
  %5 = load ptr, ptr %coerce.dive, align 8
  %call2 = call noundef i32 @_ZNK6icu_757UVector7indexOfE8UElementia(ptr noundef nonnull align 8 dereferenceable(40) %this1, ptr %5, i32 noundef 0, i8 noundef signext 0)
  %cmp3 = icmp slt i32 %call2, 0
  br i1 %cmp3, label %if.then, label %if.end

if.then:                                          ; preds = %for.body
  store i8 0, ptr %retval, align 1
  br label %return

if.end:                                           ; preds = %for.body
  br label %for.inc

for.inc:                                          ; preds = %if.end
  %6 = load i32, ptr %i, align 4
  %inc = add nsw i32 %6, 1
  store i32 %inc, ptr %i, align 4
  br label %for.cond, !llvm.loop !12

for.end:                                          ; preds = %for.cond
  store i8 1, ptr %retval, align 1
  br label %return

return:                                           ; preds = %for.end, %if.then
  %7 = load i8, ptr %retval, align 1
  ret i8 %7
}