; Function Attrs: mustprogress uwtable
define noundef signext i8 @_ZNK6icu_757UVector11containsAllERKS0_(ptr nocapture noundef nonnull readonly align 8 dereferenceable(40) %this, ptr nocapture noundef nonnull readonly align 8 dereferenceable(40) %other) local_unnamed_addr #1 align 2 {
entry:
  %count.i = getelementptr inbounds i8, ptr %other, i64 8
  %0 = load i32, ptr %count.i, align 8
  %cmp12 = icmp sgt i32 %0, 0
  br i1 %cmp12, label %for.body.lr.ph, label %return

for.body.lr.ph:                                   ; preds = %entry
  %elements = getelementptr inbounds i8, ptr %other, i64 16
  %comparer.i = getelementptr inbounds i8, ptr %this, i64 32
  %count.i4 = getelementptr inbounds i8, ptr %this, i64 8
  %elements.i = getelementptr inbounds i8, ptr %this, i64 16
  %1 = load ptr, ptr %comparer.i, align 8
  %2 = icmp eq ptr %1, null
  br i1 %2, label %for.body.lr.ph.split.us, label %for.body

for.body.lr.ph.split.us:                          ; preds = %for.body.lr.ph
  %3 = load ptr, ptr %elements, align 8
  %4 = load i32, ptr %count.i4, align 8
  %cmp1115.i.us = icmp sgt i32 %4, 0
  %5 = load ptr, ptr %elements.i, align 8
  %wide.trip.count32.i.us = zext nneg i32 %4 to i64
  br i1 %cmp1115.i.us, label %for.body.us.preheader, label %return

for.body.us.preheader:                            ; preds = %for.body.lr.ph.split.us
  %wide.trip.count = zext nneg i32 %0 to i64
  br label %for.body.us

for.body.us:                                      ; preds = %for.body.us.preheader, %for.cond.us
  %indvars.iv29 = phi i64 [ 0, %for.body.us.preheader ], [ %indvars.iv.next30, %for.cond.us ]
  %arrayidx.us = getelementptr inbounds %union.UElement, ptr %3, i64 %indvars.iv29
  %agg.tmp.sroa.0.0.copyload.us = load ptr, ptr %arrayidx.us, align 8
  %6 = ptrtoint ptr %agg.tmp.sroa.0.0.copyload.us to i64
  %key.sroa.0.0.extract.trunc.i.us = trunc i64 %6 to i32
  br label %for.body12.us.i.us

for.cond.us:                                      ; preds = %_ZNK6icu_757UVector7indexOfE8UElementia.exit.loopexit.us
  %indvars.iv.next30 = add nuw nsw i64 %indvars.iv29, 1
  %exitcond.not = icmp eq i64 %indvars.iv.next30, %wide.trip.count
  br i1 %exitcond.not, label %return, label %for.body.us, !llvm.loop !13

for.body12.us.i.us:                               ; preds = %for.inc29.us.i.us, %for.body.us
  %indvars.iv29.i.us = phi i64 [ %indvars.iv.next30.i.us, %for.inc29.us.i.us ], [ 0, %for.body.us ]
  %arrayidx24.us.i.us = getelementptr inbounds %union.UElement, ptr %5, i64 %indvars.iv29.i.us
  %7 = load i32, ptr %arrayidx24.us.i.us, align 8
  %cmp25.us.i.us = icmp eq i32 %7, %key.sroa.0.0.extract.trunc.i.us
  br i1 %cmp25.us.i.us, label %_ZNK6icu_757UVector7indexOfE8UElementia.exit.loopexit.us, label %for.inc29.us.i.us

for.inc29.us.i.us:                                ; preds = %for.body12.us.i.us
  %indvars.iv.next30.i.us = add nuw nsw i64 %indvars.iv29.i.us, 1
  %exitcond33.not.i.us = icmp eq i64 %indvars.iv.next30.i.us, %wide.trip.count32.i.us
  br i1 %exitcond33.not.i.us, label %return, label %for.body12.us.i.us, !llvm.loop !14

_ZNK6icu_757UVector7indexOfE8UElementia.exit.loopexit.us: ; preds = %for.body12.us.i.us
  %8 = and i64 %indvars.iv29.i.us, 2147483648
  %cmp3.not.us = icmp eq i64 %8, 0
  br i1 %cmp3.not.us, label %for.cond.us, label %return

for.cond:                                         ; preds = %_ZNK6icu_757UVector7indexOfE8UElementia.exit
  %indvars.iv.next = add nuw nsw i64 %indvars.iv, 1
  %9 = load i32, ptr %count.i, align 8
  %10 = sext i32 %9 to i64
  %cmp = icmp slt i64 %indvars.iv.next, %10
  br i1 %cmp, label %for.bodythread-pre-split, label %return, !llvm.loop !15

for.bodythread-pre-split:                         ; preds = %for.cond
  %.pr = load ptr, ptr %comparer.i, align 8
  br label %for.body

for.body:                                         ; preds = %for.body.lr.ph, %for.bodythread-pre-split
  %11 = phi ptr [ %.pr, %for.bodythread-pre-split ], [ %1, %for.body.lr.ph ]
  %indvars.iv = phi i64 [ %indvars.iv.next, %for.bodythread-pre-split ], [ 0, %for.body.lr.ph ]
  %12 = load ptr, ptr %elements, align 8
  %arrayidx = getelementptr inbounds %union.UElement, ptr %12, i64 %indvars.iv
  %agg.tmp.sroa.0.0.copyload = load ptr, ptr %arrayidx, align 8
  %cmp.not.i = icmp eq ptr %11, null
  br i1 %cmp.not.i, label %for.cond9.preheader.i, label %for.cond.preheader.i

for.cond.preheader.i:                             ; preds = %for.body
  %13 = load i32, ptr %count.i4, align 8
  %cmp212.i = icmp sgt i32 %13, 0
  br i1 %cmp212.i, label %for.body.i, label %return

for.cond9.preheader.i:                            ; preds = %for.body
  %14 = ptrtoint ptr %agg.tmp.sroa.0.0.copyload to i64
  %key.sroa.0.0.extract.trunc.i = trunc i64 %14 to i32
  %15 = load i32, ptr %count.i4, align 8
  %cmp1115.i = icmp sgt i32 %15, 0
  br i1 %cmp1115.i, label %for.body12.lr.ph.i, label %return

for.body12.lr.ph.i:                               ; preds = %for.cond9.preheader.i
  %16 = load ptr, ptr %elements.i, align 8
  %wide.trip.count32.i = zext nneg i32 %15 to i64
  br label %for.body12.us.i

for.body12.us.i:                                  ; preds = %for.inc29.us.i, %for.body12.lr.ph.i
  %indvars.iv29.i = phi i64 [ %indvars.iv.next30.i, %for.inc29.us.i ], [ 0, %for.body12.lr.ph.i ]
  %arrayidx24.us.i = getelementptr inbounds %union.UElement, ptr %16, i64 %indvars.iv29.i
  %17 = load i32, ptr %arrayidx24.us.i, align 8
  %cmp25.us.i = icmp eq i32 %17, %key.sroa.0.0.extract.trunc.i
  br i1 %cmp25.us.i, label %_ZNK6icu_757UVector7indexOfE8UElementia.exit, label %for.inc29.us.i

for.inc29.us.i:                                   ; preds = %for.body12.us.i
  %indvars.iv.next30.i = add nuw nsw i64 %indvars.iv29.i, 1
  %exitcond33.not.i = icmp eq i64 %indvars.iv.next30.i, %wide.trip.count32.i
  br i1 %exitcond33.not.i, label %return, label %for.body12.us.i, !llvm.loop !14

for.body.i:                                       ; preds = %for.cond.preheader.i, %for.inc.i
  %indvars.iv.i = phi i64 [ %indvars.iv.next.i, %for.inc.i ], [ 0, %for.cond.preheader.i ]
  %18 = load ptr, ptr %comparer.i, align 8
  %19 = load ptr, ptr %elements.i, align 8
  %arrayidx.i = getelementptr inbounds %union.UElement, ptr %19, i64 %indvars.iv.i
  %agg.tmp4.sroa.0.0.copyload.i = load ptr, ptr %arrayidx.i, align 8
  %call.i = tail call noundef signext i8 %18(ptr %agg.tmp.sroa.0.0.copyload, ptr %agg.tmp4.sroa.0.0.copyload.i)
  %tobool.not.i = icmp eq i8 %call.i, 0
  br i1 %tobool.not.i, label %for.inc.i, label %_ZNK6icu_757UVector7indexOfE8UElementia.exit

for.inc.i:                                        ; preds = %for.body.i
  %indvars.iv.next.i = add nuw nsw i64 %indvars.iv.i, 1
  %20 = load i32, ptr %count.i4, align 8
  %21 = sext i32 %20 to i64
  %cmp2.i = icmp slt i64 %indvars.iv.next.i, %21
  br i1 %cmp2.i, label %for.body.i, label %return, !llvm.loop !17

_ZNK6icu_757UVector7indexOfE8UElementia.exit:     ; preds = %for.body.i, %for.body12.us.i
  %retval.0.i.in = phi i64 [ %indvars.iv29.i, %for.body12.us.i ], [ %indvars.iv.i, %for.body.i ]
  %22 = and i64 %retval.0.i.in, 2147483648
  %cmp3.not = icmp eq i64 %22, 0
  br i1 %cmp3.not, label %for.cond, label %return

return:                                           ; preds = %_ZNK6icu_757UVector7indexOfE8UElementia.exit, %for.cond, %for.cond9.preheader.i, %for.cond.preheader.i, %for.inc.i, %for.inc29.us.i, %_ZNK6icu_757UVector7indexOfE8UElementia.exit.loopexit.us, %for.cond.us, %for.inc29.us.i.us, %entry, %for.body.lr.ph.split.us
  %retval.0 = phi i8 [ 1, %entry ], [ 0, %for.body.lr.ph.split.us ], [ 0, %for.inc29.us.i.us ], [ 0, %_ZNK6icu_757UVector7indexOfE8UElementia.exit.loopexit.us ], [ 1, %for.cond.us ], [ 0, %for.inc29.us.i ], [ 0, %for.inc.i ], [ 0, %_ZNK6icu_757UVector7indexOfE8UElementia.exit ], [ 1, %for.cond ], [ 0, %for.cond9.preheader.i ], [ 0, %for.cond.preheader.i ]
  ret i8 %retval.0
}